; Function Attrs: nounwind uwtable
define dso_local range(i32 0, 2) i32 @lua_checkstack(ptr noundef %0, i32 noundef %1) local_unnamed_addr #2 {
  %3 = icmp sgt i32 %1, 8000
  br i1 %3, label %35, label %4

4:                                                ; preds = %2
  %5 = getelementptr inbounds nuw i8, ptr %0, i64 16
  %6 = load ptr, ptr %5, align 8, !tbaa !4
  %7 = getelementptr inbounds nuw i8, ptr %0, i64 24
  %8 = load ptr, ptr %7, align 8, !tbaa !21
  %9 = ptrtoint ptr %6 to i64
  %10 = ptrtoint ptr %8 to i64
  %11 = sub i64 %9, %10
  %12 = ashr exact i64 %11, 4
  %13 = sext i32 %1 to i64
  %14 = add nsw i64 %12, %13
  %15 = icmp sgt i64 %14, 8000
  br i1 %15, label %35, label %16

16:                                               ; preds = %4
  %17 = icmp sgt i32 %1, 0
  br i1 %17, label %18, label %35

18:                                               ; preds = %16
  %19 = getelementptr inbounds nuw i8, ptr %0, i64 56
  %20 = load ptr, ptr %19, align 8, !tbaa !22
  %21 = ptrtoint ptr %20 to i64
  %22 = sub i64 %21, %9
  %23 = shl nuw nsw i32 %1, 4
  %24 = zext nneg i32 %23 to i64
  %.not = icmp sgt i64 %22, %24
  br i1 %.not, label %26, label %25

25:                                               ; preds = %18
  tail call void @luaD_growstack(ptr noundef nonnull %0, i32 noundef %1) #14
  %.pre = load ptr, ptr %5, align 8, !tbaa !4
  br label %26

26:                                               ; preds = %18, %25
  %27 = phi ptr [ %6, %18 ], [ %.pre, %25 ]
  %28 = getelementptr inbounds nuw i8, ptr %0, i64 40
  %29 = load ptr, ptr %28, align 8, !tbaa !23
  %30 = getelementptr inbounds nuw i8, ptr %29, i64 16
  %31 = load ptr, ptr %30, align 8, !tbaa !24
  %32 = getelementptr inbounds nuw %struct.lua_TValue, ptr %27, i64 %13
  %33 = icmp ult ptr %31, %32
  br i1 %33, label %34, label %35

34:                                               ; preds = %26
  store ptr %32, ptr %30, align 8, !tbaa !24
  br label %35

35:                                               ; preds = %2, %4, %16, %34, %26
  %.0 = phi i32 [ 1, %34 ], [ 1, %26 ], [ 1, %16 ], [ 0, %4 ], [ 0, %2 ]
  ret i32 %.0
}